target datalayout = "e-m:e-p270:32:32-p271:32:32-p272:64:64-i64:64-i128:128-f80:128-n8:16:32:64-S128"
target triple = "x86_64-pc-linux-gnu"

%"struct.cv::iPow_SIMD.5" = type { i8 }

; Function Attrs: mustprogress nounwind uwtable
define linkonce_odr hidden noundef i32 @_ZN2cv9iPow_SIMDIiiEclEPKiPiii(ptr noundef nonnull align 1 dereferenceable(1) %0, ptr noundef %1, ptr noundef %2, i32 noundef %3, i32 noundef %4) #9 comdat align 2 {
  %6 = alloca ptr, align 8
  %7 = alloca ptr, align 8
  %8 = alloca ptr, align 8
  %9 = alloca i32, align 4
  %10 = alloca i32, align 4
  store ptr %0, ptr %6, align 8, !tbaa !201
  store ptr %1, ptr %7, align 8, !tbaa !67
  store ptr %2, ptr %8, align 8, !tbaa !67
  store i32 %3, ptr %9, align 4, !tbaa !8
  store i32 %4, ptr %10, align 4, !tbaa !8
  ret i32 0
}

; Function Attrs: inlinehint mustprogress nounwind uwtable
define linkonce_odr hidden noundef i32 @_ZN2cv6cv_absIiEET_S1_(i32 noundef %0) #7 comdat {
  %2 = alloca i32, align 4
  store i32 %0, ptr %2, align 4, !tbaa !8
  %3 = load i32, ptr %2, align 4, !tbaa !8
  %4 = call i32 @llvm.abs.i32(i32 %3, i1 true)
  ret i32 %4
}

; Function Attrs: mustprogress nounwind uwtable
define linkonce_odr hidden noundef i32 @_ZNSt14numeric_limitsIiE3maxEv() #9 comdat align 2 {
  ret i32 2147483647
}

; Function Attrs: inlinehint mustprogress nounwind uwtable
define internal noundef i32 @_ZN2cvL13saturate_castIiEET_i(i32 noundef %0) #7 {
  %2 = alloca i32, align 4
  store i32 %0, ptr %2, align 4, !tbaa !8
  %3 = load i32, ptr %2, align 4, !tbaa !8
  ret i32 %3
}

; Function Attrs: mustprogress uwtable
define internal void @_ZN2cvL6iPow_iIiiEEvPKT_PS1_ii(ptr noundef %0, ptr noundef %1, i32 noundef %2, i32 noundef %3) #4 {
  %5 = alloca ptr, align 8
  %6 = alloca ptr, align 8
  %7 = alloca i32, align 4
  %8 = alloca i32, align 4
  %9 = alloca [5 x i32], align 16
  %10 = alloca i32, align 4
  %11 = alloca i32, align 4
  %12 = alloca %"struct.cv::iPow_SIMD.5", align 1
  %13 = alloca i32, align 4
  %14 = alloca i32, align 4
  %15 = alloca i32, align 4
  %16 = alloca i32, align 4
  store ptr %0, ptr %5, align 8, !tbaa !67
  store ptr %1, ptr %6, align 8, !tbaa !67
  store i32 %2, ptr %7, align 4, !tbaa !8
  store i32 %3, ptr %8, align 4, !tbaa !8
  %17 = load i32, ptr %8, align 4, !tbaa !8
  %18 = icmp slt i32 %17, 0
  br i1 %18, label %19, label %69

19:                                               ; preds = %4
  call void @llvm.lifetime.start.p0(i64 20, ptr %9) #3
  %20 = load i32, ptr %8, align 4, !tbaa !8
  %21 = icmp eq i32 %20, -1
  %22 = select i1 %21, i32 -1, i32 0
  %23 = call noundef i32 @_ZN2cvL13saturate_castIiEET_i(i32 noundef %22)
  store i32 %23, ptr %9, align 4, !tbaa !8
  %24 = getelementptr inbounds i32, ptr %9, i64 1
  %25 = load i32, ptr %8, align 4, !tbaa !8
  %26 = and i32 %25, 1
  %27 = icmp ne i32 %26, 0
  %28 = select i1 %27, i32 -1, i32 1
  %29 = call noundef i32 @_ZN2cvL13saturate_castIiEET_i(i32 noundef %28)
  store i32 %29, ptr %24, align 4, !tbaa !8
  %30 = getelementptr inbounds i32, ptr %9, i64 2
  %31 = call noundef i32 @_ZNSt14numeric_limitsIiE3maxEv() #3
  store i32 %31, ptr %30, align 4, !tbaa !8
  %32 = getelementptr inbounds i32, ptr %9, i64 3
  store i32 1, ptr %32, align 4, !tbaa !8
  %33 = getelementptr inbounds i32, ptr %9, i64 4
  %34 = load i32, ptr %8, align 4, !tbaa !8
  %35 = icmp eq i32 %34, -1
  %36 = select i1 %35, i32 1, i32 0
  %37 = call noundef i32 @_ZN2cvL13saturate_castIiEET_i(i32 noundef %36)
  store i32 %37, ptr %33, align 4, !tbaa !8
  call void @llvm.lifetime.start.p0(i64 4, ptr %10) #3
  store i32 0, ptr %10, align 4, !tbaa !8
  br label %38

38:                                               ; preds = %65, %19
  %39 = load i32, ptr %10, align 4, !tbaa !8
  %40 = load i32, ptr %7, align 4, !tbaa !8
  %41 = icmp slt i32 %39, %40
  br i1 %41, label %43, label %42

42:                                               ; preds = %38
  call void @llvm.lifetime.end.p0(i64 4, ptr %10) #3
  br label %68

43:                                               ; preds = %38
  call void @llvm.lifetime.start.p0(i64 4, ptr %11) #3
  %44 = load ptr, ptr %5, align 8, !tbaa !67
  %45 = load i32, ptr %10, align 4, !tbaa !8
  %46 = sext i32 %45 to i64
  %47 = getelementptr inbounds i32, ptr %44, i64 %46
  %48 = load i32, ptr %47, align 4, !tbaa !8
  store i32 %48, ptr %11, align 4, !tbaa !8
  %49 = load i32, ptr %11, align 4, !tbaa !8
  %50 = call noundef i32 @_ZN2cv6cv_absIiEET_S1_(i32 noundef %49)
  %51 = icmp sle i32 %50, 2
  br i1 %51, label %52, label %58

52:                                               ; preds = %43
  %53 = load i32, ptr %11, align 4, !tbaa !8
  %54 = add nsw i32 %53, 2
  %55 = sext i32 %54 to i64
  %56 = getelementptr inbounds [5 x i32], ptr %9, i64 0, i64 %55
  %57 = load i32, ptr %56, align 4, !tbaa !8
  br label %59

58:                                               ; preds = %43
  br label %59

59:                                               ; preds = %58, %52
  %60 = phi i32 [ %57, %52 ], [ 0, %58 ]
  %61 = load ptr, ptr %6, align 8, !tbaa !67
  %62 = load i32, ptr %10, align 4, !tbaa !8
  %63 = sext i32 %62 to i64
  %64 = getelementptr inbounds i32, ptr %61, i64 %63
  store i32 %60, ptr %64, align 4, !tbaa !8
  call void @llvm.lifetime.end.p0(i64 4, ptr %11) #3
  br label %65

65:                                               ; preds = %59
  %66 = load i32, ptr %10, align 4, !tbaa !8
  %67 = add nsw i32 %66, 1
  store i32 %67, ptr %10, align 4, !tbaa !8
  br label %38, !llvm.loop !198

68:                                               ; preds = %42
  call void @llvm.lifetime.end.p0(i64 20, ptr %9) #3
  br label %117

69:                                               ; preds = %4
  call void @llvm.lifetime.start.p0(i64 1, ptr %12) #3
  call void @llvm.lifetime.start.p0(i64 4, ptr %13) #3
  %70 = load ptr, ptr %5, align 8, !tbaa !67
  %71 = load ptr, ptr %6, align 8, !tbaa !67
  %72 = load i32, ptr %7, align 4, !tbaa !8
  %73 = load i32, ptr %8, align 4, !tbaa !8
  %74 = call noundef i32 @_ZN2cv9iPow_SIMDIiiEclEPKiPiii(ptr noundef nonnull align 1 dereferenceable(1) %12, ptr noundef %70, ptr noundef %71, i32 noundef %72, i32 noundef %73)
  store i32 %74, ptr %13, align 4, !tbaa !8
  br label %75

75:                                               ; preds = %113, %69
  %76 = load i32, ptr %13, align 4, !tbaa !8
  %77 = load i32, ptr %7, align 4, !tbaa !8
  %78 = icmp slt i32 %76, %77
  br i1 %78, label %79, label %116

79:                                               ; preds = %75
  call void @llvm.lifetime.start.p0(i64 4, ptr %14) #3
  store i32 1, ptr %14, align 4, !tbaa !8
  call void @llvm.lifetime.start.p0(i64 4, ptr %15) #3
  %80 = load ptr, ptr %5, align 8, !tbaa !67
  %81 = load i32, ptr %13, align 4, !tbaa !8
  %82 = sext i32 %81 to i64
  %83 = getelementptr inbounds i32, ptr %80, i64 %82
  %84 = load i32, ptr %83, align 4, !tbaa !8
  store i32 %84, ptr %15, align 4, !tbaa !8
  call void @llvm.lifetime.start.p0(i64 4, ptr %16) #3
  %85 = load i32, ptr %8, align 4, !tbaa !8
  store i32 %85, ptr %16, align 4, !tbaa !8
  br label %86

86:                                               ; preds = %97, %79
  %87 = load i32, ptr %16, align 4, !tbaa !8
  %88 = icmp sgt i32 %87, 1
  br i1 %88, label %89, label %103

89:                                               ; preds = %86
  %90 = load i32, ptr %16, align 4, !tbaa !8
  %91 = and i32 %90, 1
  %92 = icmp ne i32 %91, 0
  br i1 %92, label %93, label %97

93:                                               ; preds = %89
  %94 = load i32, ptr %15, align 4, !tbaa !8
  %95 = load i32, ptr %14, align 4, !tbaa !8
  %96 = mul nsw i32 %95, %94
  store i32 %96, ptr %14, align 4, !tbaa !8
  br label %97

97:                                               ; preds = %93, %89
  %98 = load i32, ptr %15, align 4, !tbaa !8
  %99 = load i32, ptr %15, align 4, !tbaa !8
  %100 = mul nsw i32 %99, %98
  store i32 %100, ptr %15, align 4, !tbaa !8
  %101 = load i32, ptr %16, align 4, !tbaa !8
  %102 = ashr i32 %101, 1
  store i32 %102, ptr %16, align 4, !tbaa !8
  br label %86, !llvm.loop !199

103:                                              ; preds = %86
  %104 = load i32, ptr %15, align 4, !tbaa !8
  %105 = load i32, ptr %14, align 4, !tbaa !8
  %106 = mul nsw i32 %105, %104
  store i32 %106, ptr %14, align 4, !tbaa !8
  %107 = load i32, ptr %14, align 4, !tbaa !8
  %108 = call noundef i32 @_ZN2cvL13saturate_castIiEET_i(i32 noundef %107)
  %109 = load ptr, ptr %6, align 8, !tbaa !67
  %110 = load i32, ptr %13, align 4, !tbaa !8
  %111 = sext i32 %110 to i64
  %112 = getelementptr inbounds i32, ptr %109, i64 %111
  store i32 %108, ptr %112, align 4, !tbaa !8
  call void @llvm.lifetime.end.p0(i64 4, ptr %16) #3
  call void @llvm.lifetime.end.p0(i64 4, ptr %15) #3
  call void @llvm.lifetime.end.p0(i64 4, ptr %14) #3
  br label %113

113:                                              ; preds = %103
  %114 = load i32, ptr %13, align 4, !tbaa !8
  %115 = add nsw i32 %114, 1
  store i32 %115, ptr %13, align 4, !tbaa !8
  br label %75, !llvm.loop !200

116:                                              ; preds = %75
  call void @llvm.lifetime.end.p0(i64 4, ptr %13) #3
  call void @llvm.lifetime.end.p0(i64 1, ptr %12) #3
  br label %117

117:                                              ; preds = %116, %68
  ret void
}

; Function Attrs: mustprogress uwtable
define internal void @_ZN2cvL7iPow32sEPKiPiii(ptr noundef %0, ptr noundef %1, i32 noundef %2, i32 noundef %3) #4 {
  %5 = alloca ptr, align 8
  %6 = alloca ptr, align 8
  %7 = alloca i32, align 4
  %8 = alloca i32, align 4
  store ptr %0, ptr %5, align 8, !tbaa !67
  store ptr %1, ptr %6, align 8, !tbaa !67
  store i32 %2, ptr %7, align 4, !tbaa !8
  store i32 %3, ptr %8, align 4, !tbaa !8
  %9 = load ptr, ptr %5, align 8, !tbaa !67
  %10 = load ptr, ptr %6, align 8, !tbaa !67
  %11 = load i32, ptr %7, align 4, !tbaa !8
  %12 = load i32, ptr %8, align 4, !tbaa !8
  call void @_ZN2cvL6iPow_iIiiEEvPKT_PS1_ii(ptr noundef %9, ptr noundef %10, i32 noundef %11, i32 noundef %12)
  ret void
}