; Function Attrs: mustprogress nofree norecurse nosync nounwind memory(argmem: readwrite) uwtable
define internal void @_ZN2cvL7iPow32sEPKiPiii(ptr noundef readonly captures(none) %0, ptr noundef writeonly captures(none) %1, i32 noundef %2, i32 noundef %3) #18 {
  %5 = alloca [5 x i32], align 16
  %6 = icmp slt i32 %3, 0
  br i1 %6, label %19, label %.preheader.i

.preheader.i:                                     ; preds = %4
  %7 = icmp sgt i32 %2, 0
  br i1 %7, label %.lr.ph46.i, label %_ZN2cvL6iPow_iIiiEEvPKT_PS1_ii.exit

.lr.ph46.i:                                       ; preds = %.preheader.i
  %8 = icmp samesign ugt i32 %3, 1
  %wide.trip.count53.i = zext nneg i32 %2 to i64
  br i1 %8, label %.lr.ph.us.i, label %.lr.ph46.split.i

.lr.ph.us.i:                                      ; preds = %.lr.ph46.i, %._crit_edge.us.i
  %indvars.iv50.i = phi i64 [ %indvars.iv.next51.i, %._crit_edge.us.i ], [ 0, %.lr.ph46.i ]
  %9 = getelementptr inbounds nuw i32, ptr %0, i64 %indvars.iv50.i
  %10 = load i32, ptr %9, align 4, !tbaa !157
  br label %11

11:                                               ; preds = %11, %.lr.ph.us.i
  %.043.us.i = phi i32 [ %3, %.lr.ph.us.i ], [ %15, %11 ]
  %.03442.us.i = phi i32 [ %10, %.lr.ph.us.i ], [ %14, %11 ]
  %.03541.us.i = phi i32 [ 1, %.lr.ph.us.i ], [ %spec.select.us.i, %11 ]
  %12 = and i32 %.043.us.i, 1
  %.not.us.i = icmp eq i32 %12, 0
  %13 = select i1 %.not.us.i, i32 1, i32 %.03442.us.i
  %spec.select.us.i = mul nsw i32 %13, %.03541.us.i
  %14 = mul nsw i32 %.03442.us.i, %.03442.us.i
  %15 = lshr i32 %.043.us.i, 1
  %16 = icmp ugt i32 %.043.us.i, 3
  br i1 %16, label %11, label %._crit_edge.us.i, !llvm.loop !242

._crit_edge.us.i:                                 ; preds = %11
  %17 = mul nsw i32 %spec.select.us.i, %14
  %18 = getelementptr inbounds nuw i32, ptr %1, i64 %indvars.iv50.i
  store i32 %17, ptr %18, align 4, !tbaa !157
  %indvars.iv.next51.i = add nuw nsw i64 %indvars.iv50.i, 1
  %exitcond54.not.i = icmp eq i64 %indvars.iv.next51.i, %wide.trip.count53.i
  br i1 %exitcond54.not.i, label %_ZN2cvL6iPow_iIiiEEvPKT_PS1_ii.exit, label %.lr.ph.us.i, !llvm.loop !243

19:                                               ; preds = %4
  call void @llvm.lifetime.start.p0(i64 20, ptr nonnull %5) #27
  %20 = icmp eq i32 %3, -1
  %21 = sext i1 %20 to i32
  store i32 %21, ptr %5, align 16, !tbaa !157
  %22 = getelementptr inbounds nuw i8, ptr %5, i64 4
  %23 = and i32 %3, 1
  %.not40.i = icmp eq i32 %23, 0
  %24 = select i1 %.not40.i, i32 1, i32 -1
  store i32 %24, ptr %22, align 4, !tbaa !157
  %25 = getelementptr inbounds nuw i8, ptr %5, i64 8
  store i32 2147483647, ptr %25, align 8, !tbaa !157
  %26 = getelementptr inbounds nuw i8, ptr %5, i64 12
  store i32 1, ptr %26, align 4, !tbaa !157
  %27 = getelementptr inbounds nuw i8, ptr %5, i64 16
  %28 = zext i1 %20 to i32
  store i32 %28, ptr %27, align 16, !tbaa !157
  %29 = icmp sgt i32 %2, 0
  br i1 %29, label %.lr.ph.preheader.i, label %._crit_edge.i

.lr.ph.preheader.i:                               ; preds = %19
  %wide.trip.count58.i = zext nneg i32 %2 to i64
  br label %.lr.ph.i

._crit_edge.i:                                    ; preds = %39, %19
  call void @llvm.lifetime.end.p0(i64 20, ptr nonnull %5) #27
  br label %_ZN2cvL6iPow_iIiiEEvPKT_PS1_ii.exit

.lr.ph.i:                                         ; preds = %39, %.lr.ph.preheader.i
  %indvars.iv55.i = phi i64 [ 0, %.lr.ph.preheader.i ], [ %indvars.iv.next56.i, %39 ]
  %30 = getelementptr inbounds nuw i32, ptr %0, i64 %indvars.iv55.i
  %31 = load i32, ptr %30, align 4, !tbaa !157
  %32 = tail call noundef i32 @llvm.abs.i32(i32 %31, i1 true)
  %33 = icmp samesign ult i32 %32, 3
  br i1 %33, label %34, label %39

34:                                               ; preds = %.lr.ph.i
  %35 = add nsw i32 %31, 2
  %36 = sext i32 %35 to i64
  %37 = getelementptr inbounds [5 x i32], ptr %5, i64 0, i64 %36
  %38 = load i32, ptr %37, align 4, !tbaa !157
  br label %39

39:                                               ; preds = %34, %.lr.ph.i
  %40 = phi i32 [ %38, %34 ], [ 0, %.lr.ph.i ]
  %41 = getelementptr inbounds nuw i32, ptr %1, i64 %indvars.iv55.i
  store i32 %40, ptr %41, align 4, !tbaa !157
  %indvars.iv.next56.i = add nuw nsw i64 %indvars.iv55.i, 1
  %exitcond59.not.i = icmp eq i64 %indvars.iv.next56.i, %wide.trip.count58.i
  br i1 %exitcond59.not.i, label %._crit_edge.i, label %.lr.ph.i, !llvm.loop !244

.lr.ph46.split.i:                                 ; preds = %.lr.ph46.i, %.lr.ph46.split.i
  %indvars.iv.i = phi i64 [ %indvars.iv.next.i, %.lr.ph46.split.i ], [ 0, %.lr.ph46.i ]
  %42 = getelementptr inbounds nuw i32, ptr %0, i64 %indvars.iv.i
  %43 = load i32, ptr %42, align 4, !tbaa !157
  %44 = getelementptr inbounds nuw i32, ptr %1, i64 %indvars.iv.i
  store i32 %43, ptr %44, align 4, !tbaa !157
  %indvars.iv.next.i = add nuw nsw i64 %indvars.iv.i, 1
  %exitcond.not.i = icmp eq i64 %indvars.iv.next.i, %wide.trip.count53.i
  br i1 %exitcond.not.i, label %_ZN2cvL6iPow_iIiiEEvPKT_PS1_ii.exit, label %.lr.ph46.split.i, !llvm.loop !243

_ZN2cvL6iPow_iIiiEEvPKT_PS1_ii.exit:              ; preds = %.lr.ph46.split.i, %._crit_edge.us.i, %.preheader.i, %._crit_edge.i
  ret void
}